; Function Attrs: null_pointer_is_valid sspstrong uwtable
define void @tvb_composite_append(ptr noundef %0, ptr noundef %1) local_unnamed_addr #0 {
  %.not = icmp eq ptr %0, null
  br i1 %.not, label %7, label %3

3:                                                ; preds = %2
  %4 = getelementptr inbounds nuw i8, ptr %0, i64 16
  %5 = load i8, ptr %4, align 8, !range !6, !noundef !7
  %6 = trunc nuw i8 %5 to i1
  br i1 %6, label %7, label %8

7:                                                ; preds = %3, %2
  tail call void (ptr, ...) @proto_report_dissector_bug(ptr noundef nonnull @.str, ptr noundef nonnull @.str.1, i32 noundef 221, ptr noundef nonnull @.str.2) #7
  unreachable

8:                                                ; preds = %3
  %9 = getelementptr inbounds nuw i8, ptr %0, i64 8
  %10 = load ptr, ptr %9, align 8
  %11 = icmp eq ptr %10, @tvb_composite_ops
  br i1 %11, label %13, label %12

12:                                               ; preds = %8
  tail call void (ptr, ...) @proto_report_dissector_bug(ptr noundef nonnull @.str, ptr noundef nonnull @.str.1, i32 noundef 222, ptr noundef nonnull @.str.3) #7
  unreachable

13:                                               ; preds = %8
  %.not13 = icmp eq ptr %1, null
  br i1 %.not13, label %26, label %14

14:                                               ; preds = %13
  %15 = getelementptr inbounds nuw i8, ptr %1, i64 40
  %16 = load i32, ptr %15, align 8
  %.not14 = icmp eq i32 %16, 0
  br i1 %.not14, label %26, label %17

17:                                               ; preds = %14
  %18 = getelementptr inbounds nuw i8, ptr %0, i64 56
  %19 = load ptr, ptr %18, align 8
  tail call void @g_queue_push_tail(ptr noundef %19, ptr noundef nonnull %1)
  %20 = load ptr, ptr %18, align 8
  %21 = tail call i32 @g_queue_get_length(ptr noundef %20)
  %22 = icmp eq i32 %21, 1
  br i1 %22, label %23, label %26

23:                                               ; preds = %17
  %24 = load ptr, ptr %18, align 8
  %25 = tail call ptr @g_queue_peek_head(ptr noundef %24)
  tail call void @tvb_add_to_chain(ptr noundef %25, ptr noundef nonnull %0)
  br label %26

26:                                               ; preds = %17, %23, %14, %13
  ret void
}